target datalayout = "e-m:e-p270:32:32-p271:32:32-p272:64:64-i64:64-i128:128-f80:128-n8:16:32:64-S128"
target triple = "x86_64-pc-linux-gnu"

%struct.FunctionCallInfoBaseData = type { ptr, ptr, ptr, i32, i8, i16, [0 x %struct.NullableDatum] }
%struct.NullableDatum = type { i64, i8 }
%struct.OSAPerGroupState = type { ptr, ptr, ptr, i64, i8 }
%union.anon = type { i64 }

@.str = private unnamed_addr constant [43 x i8] c"percentile value %g is not between 0 and 1\00", align 1
@.str.1 = private unnamed_addr constant [17 x i8] c"orderedsetaggs.c\00", align 1
@__func__.percentile_disc_final = private unnamed_addr constant [22 x i8] c"percentile_disc_final\00", align 1
@.str.2 = private unnamed_addr constant [31 x i8] c"missing row in percentile_disc\00", align 1

; Function Attrs: inlinehint nounwind uwtable
define internal i64 @DatumGetInt64(i64 noundef %0) #2 {
  %2 = alloca i64, align 8
  store i64 %0, ptr %2, align 8
  %3 = load i64, ptr %2, align 8
  ret i64 %3
}

; Function Attrs: inlinehint nounwind uwtable
define internal ptr @DatumGetPointer(i64 noundef %0) #2 {
  %2 = alloca i64, align 8
  store i64 %0, ptr %2, align 8
  %3 = load i64, ptr %2, align 8
  %4 = inttoptr i64 %3 to ptr
  ret ptr %4
}

; Function Attrs: inlinehint nounwind uwtable
define internal double @DatumGetFloat8(i64 noundef %0) #2 {
  %2 = alloca i64, align 8
  %3 = alloca %union.anon, align 8
  store i64 %0, ptr %2, align 8
  call void @llvm.lifetime.start.p0(i64 8, ptr %3) #8
  %4 = load i64, ptr %2, align 8
  %5 = call i64 @DatumGetInt64(i64 noundef %4)
  store i64 %5, ptr %3, align 8
  %6 = load double, ptr %3, align 8
  call void @llvm.lifetime.end.p0(i64 8, ptr %3) #8
  ret double %6
}

; Function Attrs: nounwind uwtable
define dso_local i64 @percentile_disc_final(ptr noundef %0) #0 {
  %2 = alloca i64, align 8
  %3 = alloca ptr, align 8
  %4 = alloca ptr, align 8
  %5 = alloca double, align 8
  %6 = alloca i64, align 8
  %7 = alloca i8, align 1
  %8 = alloca i64, align 8
  %9 = alloca i32, align 4
  store ptr %0, ptr %3, align 8
  call void @llvm.lifetime.start.p0(i64 8, ptr %4) #8
  call void @llvm.lifetime.start.p0(i64 8, ptr %5) #8
  call void @llvm.lifetime.start.p0(i64 8, ptr %6) #8
  call void @llvm.lifetime.start.p0(i64 1, ptr %7) #8
  call void @llvm.lifetime.start.p0(i64 8, ptr %8) #8
  %10 = load ptr, ptr %3, align 8
  %11 = getelementptr inbounds nuw %struct.FunctionCallInfoBaseData, ptr %10, i32 0, i32 6
  %12 = getelementptr inbounds [0 x %struct.NullableDatum], ptr %11, i64 0, i64 1
  %13 = getelementptr inbounds nuw %struct.NullableDatum, ptr %12, i32 0, i32 1
  %14 = load i8, ptr %13, align 8, !range !4, !noundef !5
  %15 = trunc i8 %14 to i1
  br i1 %15, label %16, label %22

16:                                               ; preds = %1
  br label %17

17:                                               ; preds = %16
  %18 = load ptr, ptr %3, align 8
  %19 = getelementptr inbounds nuw %struct.FunctionCallInfoBaseData, ptr %18, i32 0, i32 4
  store i8 1, ptr %19, align 4
  store i64 0, ptr %2, align 8
  store i32 1, ptr %9, align 4
  br label %153

20:                                               ; No predecessors!
  br label %21

21:                                               ; preds = %20
  br label %22

22:                                               ; preds = %21, %1
  %23 = load ptr, ptr %3, align 8
  %24 = getelementptr inbounds nuw %struct.FunctionCallInfoBaseData, ptr %23, i32 0, i32 6
  %25 = getelementptr inbounds [0 x %struct.NullableDatum], ptr %24, i64 0, i64 1
  %26 = getelementptr inbounds nuw %struct.NullableDatum, ptr %25, i32 0, i32 0
  %27 = load i64, ptr %26, align 8
  %28 = call double @DatumGetFloat8(i64 noundef %27)
  store double %28, ptr %5, align 8
  %29 = load double, ptr %5, align 8
  %30 = fcmp olt double %29, 0.000000e+00
  br i1 %30, label %37, label %31

31:                                               ; preds = %22
  %32 = load double, ptr %5, align 8
  %33 = fcmp ogt double %32, 1.000000e+00
  br i1 %33, label %37, label %34

34:                                               ; preds = %31
  %35 = load double, ptr %5, align 8
  %36 = call i1 @llvm.is.fpclass.f64(double %35, i32 3)
  br i1 %36, label %37, label %50

37:                                               ; preds = %34, %31, %22
  br label %38

38:                                               ; preds = %37
  br i1 true, label %39, label %41

39:                                               ; preds = %38
  %40 = call zeroext i1 @errstart_cold(i32 noundef 21, ptr noundef null) #9
  br i1 %40, label %43, label %47

41:                                               ; preds = %38
  %42 = call zeroext i1 @errstart(i32 noundef 21, ptr noundef null)
  br i1 %42, label %43, label %47

43:                                               ; preds = %41, %39
  %44 = call i32 @errcode(i32 noundef 50331778)
  %45 = load double, ptr %5, align 8
  %46 = call i32 (ptr, ...) @errmsg(ptr noundef @.str, double noundef %45)
  call void @errfinish(ptr noundef @.str.1, i32 noundef 447, ptr noundef @__func__.percentile_disc_final)
  br label %47

47:                                               ; preds = %43, %41, %39
  unreachable

48:                                               ; No predecessors!
  br label %49

49:                                               ; preds = %48
  br label %50

50:                                               ; preds = %49, %34
  %51 = load ptr, ptr %3, align 8
  %52 = getelementptr inbounds nuw %struct.FunctionCallInfoBaseData, ptr %51, i32 0, i32 6
  %53 = getelementptr inbounds [0 x %struct.NullableDatum], ptr %52, i64 0, i64 0
  %54 = getelementptr inbounds nuw %struct.NullableDatum, ptr %53, i32 0, i32 1
  %55 = load i8, ptr %54, align 8, !range !4, !noundef !5
  %56 = trunc i8 %55 to i1
  br i1 %56, label %57, label %63

57:                                               ; preds = %50
  br label %58

58:                                               ; preds = %57
  %59 = load ptr, ptr %3, align 8
  %60 = getelementptr inbounds nuw %struct.FunctionCallInfoBaseData, ptr %59, i32 0, i32 4
  store i8 1, ptr %60, align 4
  store i64 0, ptr %2, align 8
  store i32 1, ptr %9, align 4
  br label %153

61:                                               ; No predecessors!
  br label %62

62:                                               ; preds = %61
  br label %63

63:                                               ; preds = %62, %50
  %64 = load ptr, ptr %3, align 8
  %65 = getelementptr inbounds nuw %struct.FunctionCallInfoBaseData, ptr %64, i32 0, i32 6
  %66 = getelementptr inbounds [0 x %struct.NullableDatum], ptr %65, i64 0, i64 0
  %67 = getelementptr inbounds nuw %struct.NullableDatum, ptr %66, i32 0, i32 0
  %68 = load i64, ptr %67, align 8
  %69 = call ptr @DatumGetPointer(i64 noundef %68)
  store ptr %69, ptr %4, align 8
  %70 = load ptr, ptr %4, align 8
  %71 = getelementptr inbounds nuw %struct.OSAPerGroupState, ptr %70, i32 0, i32 3
  %72 = load i64, ptr %71, align 8
  %73 = icmp eq i64 %72, 0
  br i1 %73, label %74, label %80

74:                                               ; preds = %63
  br label %75

75:                                               ; preds = %74
  %76 = load ptr, ptr %3, align 8
  %77 = getelementptr inbounds nuw %struct.FunctionCallInfoBaseData, ptr %76, i32 0, i32 4
  store i8 1, ptr %77, align 4
  store i64 0, ptr %2, align 8
  store i32 1, ptr %9, align 4
  br label %153

78:                                               ; No predecessors!
  br label %79

79:                                               ; preds = %78
  br label %80

80:                                               ; preds = %79, %63
  %81 = load ptr, ptr %4, align 8
  %82 = getelementptr inbounds nuw %struct.OSAPerGroupState, ptr %81, i32 0, i32 4
  %83 = load i8, ptr %82, align 8, !range !4, !noundef !5
  %84 = trunc i8 %83 to i1
  br i1 %84, label %91, label %85

85:                                               ; preds = %80
  %86 = load ptr, ptr %4, align 8
  %87 = getelementptr inbounds nuw %struct.OSAPerGroupState, ptr %86, i32 0, i32 2
  %88 = load ptr, ptr %87, align 8
  call void @tuplesort_performsort(ptr noundef %88)
  %89 = load ptr, ptr %4, align 8
  %90 = getelementptr inbounds nuw %struct.OSAPerGroupState, ptr %89, i32 0, i32 4
  store i8 1, ptr %90, align 8
  br label %95

91:                                               ; preds = %80
  %92 = load ptr, ptr %4, align 8
  %93 = getelementptr inbounds nuw %struct.OSAPerGroupState, ptr %92, i32 0, i32 2
  %94 = load ptr, ptr %93, align 8
  call void @tuplesort_rescan(ptr noundef %94)
  br label %95

95:                                               ; preds = %91, %85
  %96 = load double, ptr %5, align 8
  %97 = load ptr, ptr %4, align 8
  %98 = getelementptr inbounds nuw %struct.OSAPerGroupState, ptr %97, i32 0, i32 3
  %99 = load i64, ptr %98, align 8
  %100 = sitofp i64 %99 to double
  %101 = fmul double %96, %100
  %102 = call double @llvm.ceil.f64(double %101)
  %103 = fptosi double %102 to i64
  store i64 %103, ptr %8, align 8
  %104 = load i64, ptr %8, align 8
  %105 = icmp sgt i64 %104, 1
  br i1 %105, label %106, label %125

106:                                              ; preds = %95
  %107 = load ptr, ptr %4, align 8
  %108 = getelementptr inbounds nuw %struct.OSAPerGroupState, ptr %107, i32 0, i32 2
  %109 = load ptr, ptr %108, align 8
  %110 = load i64, ptr %8, align 8
  %111 = sub i64 %110, 1
  %112 = call zeroext i1 @tuplesort_skiptuples(ptr noundef %109, i64 noundef %111, i1 noundef zeroext true)
  br i1 %112, label %124, label %113

113:                                              ; preds = %106
  br label %114

114:                                              ; preds = %113
  br i1 true, label %115, label %117

115:                                              ; preds = %114
  %116 = call zeroext i1 @errstart_cold(i32 noundef 21, ptr noundef null) #9
  br i1 %116, label %119, label %121

117:                                              ; preds = %114
  %118 = call zeroext i1 @errstart(i32 noundef 21, ptr noundef null)
  br i1 %118, label %119, label %121

119:                                              ; preds = %117, %115
  %120 = call i32 (ptr, ...) @errmsg_internal(ptr noundef @.str.2)
  call void @errfinish(ptr noundef @.str.1, i32 noundef 480, ptr noundef @__func__.percentile_disc_final)
  br label %121

121:                                              ; preds = %119, %117, %115
  unreachable

122:                                              ; No predecessors!
  br label %123

123:                                              ; preds = %122
  br label %124

124:                                              ; preds = %123, %106
  br label %125

125:                                              ; preds = %124, %95
  %126 = load ptr, ptr %4, align 8
  %127 = getelementptr inbounds nuw %struct.OSAPerGroupState, ptr %126, i32 0, i32 2
  %128 = load ptr, ptr %127, align 8
  %129 = call zeroext i1 @tuplesort_getdatum(ptr noundef %128, i1 noundef zeroext true, i1 noundef zeroext true, ptr noundef %6, ptr noundef %7, ptr noundef null)
  br i1 %129, label %141, label %130

130:                                              ; preds = %125
  br label %131

131:                                              ; preds = %130
  br i1 true, label %132, label %134

132:                                              ; preds = %131
  %133 = call zeroext i1 @errstart_cold(i32 noundef 21, ptr noundef null) #9
  br i1 %133, label %136, label %138

134:                                              ; preds = %131
  %135 = call zeroext i1 @errstart(i32 noundef 21, ptr noundef null)
  br i1 %135, label %136, label %138

136:                                              ; preds = %134, %132
  %137 = call i32 (ptr, ...) @errmsg_internal(ptr noundef @.str.2)
  call void @errfinish(ptr noundef @.str.1, i32 noundef 485, ptr noundef @__func__.percentile_disc_final)
  br label %138

138:                                              ; preds = %136, %134, %132
  unreachable

139:                                              ; No predecessors!
  br label %140

140:                                              ; preds = %139
  br label %141

141:                                              ; preds = %140, %125
  %142 = load i8, ptr %7, align 1, !range !4, !noundef !5
  %143 = trunc i8 %142 to i1
  br i1 %143, label %144, label %150

144:                                              ; preds = %141
  br label %145

145:                                              ; preds = %144
  %146 = load ptr, ptr %3, align 8
  %147 = getelementptr inbounds nuw %struct.FunctionCallInfoBaseData, ptr %146, i32 0, i32 4
  store i8 1, ptr %147, align 4
  store i64 0, ptr %2, align 8
  store i32 1, ptr %9, align 4
  br label %153

148:                                              ; No predecessors!
  br label %149

149:                                              ; preds = %148
  br label %152

150:                                              ; preds = %141
  %151 = load i64, ptr %6, align 8
  store i64 %151, ptr %2, align 8
  store i32 1, ptr %9, align 4
  br label %153

152:                                              ; preds = %149
  store i32 0, ptr %9, align 4
  br label %153

153:                                              ; preds = %152, %150, %145, %75, %58, %17
  call void @llvm.lifetime.end.p0(i64 8, ptr %8) #8
  call void @llvm.lifetime.end.p0(i64 1, ptr %7) #8
  call void @llvm.lifetime.end.p0(i64 8, ptr %6) #8
  call void @llvm.lifetime.end.p0(i64 8, ptr %5) #8
  call void @llvm.lifetime.end.p0(i64 8, ptr %4) #8
  %154 = load i32, ptr %9, align 4
  switch i32 %154, label %157 [
    i32 0, label %155
    i32 1, label %155
  ]

155:                                              ; preds = %153, %153
  %156 = load i64, ptr %2, align 8
  ret i64 %156

157:                                              ; preds = %153
  unreachable
}