; Function Attrs: nounwind uwtable
define dso_local i64 @percentile_disc_final(ptr noundef captures(none) %0) local_unnamed_addr #0 {
  %2 = alloca i64, align 8
  %3 = alloca i8, align 1
  call void @llvm.lifetime.start.p0(i64 8, ptr nonnull %2) #10
  call void @llvm.lifetime.start.p0(i64 1, ptr nonnull %3) #10
  %4 = getelementptr inbounds nuw i8, ptr %0, i64 32
  %5 = getelementptr inbounds nuw i8, ptr %0, i64 56
  %6 = load i8, ptr %5, align 8, !range !4, !noundef !5
  %7 = trunc nuw i8 %6 to i1
  br i1 %7, label %8, label %10

8:                                                ; preds = %1
  %9 = getelementptr inbounds nuw i8, ptr %0, i64 28
  store i8 1, ptr %9, align 4
  br label %70

10:                                               ; preds = %1
  %11 = getelementptr inbounds nuw i8, ptr %0, i64 48
  %12 = load double, ptr %11, align 8
  %13 = fcmp ogt double %12, 1.000000e+00
  %14 = fcmp ult double %12, 0.000000e+00
  %or.cond26 = or i1 %14, %13
  br i1 %or.cond26, label %15, label %19

15:                                               ; preds = %10
  %16 = tail call zeroext i1 @errstart_cold(i32 noundef 21, ptr noundef null) #11
  tail call void @llvm.assume(i1 %16)
  %17 = tail call i32 @errcode(i32 noundef 50331778) #10
  %18 = tail call i32 (ptr, ...) @errmsg(ptr noundef nonnull @.str, double noundef %12) #10
  tail call void @errfinish(ptr noundef nonnull @.str.1, i32 noundef 447, ptr noundef nonnull @__func__.percentile_disc_final) #10
  unreachable

19:                                               ; preds = %10
  %20 = getelementptr inbounds nuw i8, ptr %0, i64 40
  %21 = load i8, ptr %20, align 8, !range !4, !noundef !5
  %22 = trunc nuw i8 %21 to i1
  br i1 %22, label %23, label %25

23:                                               ; preds = %19
  %24 = getelementptr inbounds nuw i8, ptr %0, i64 28
  store i8 1, ptr %24, align 4
  br label %70

25:                                               ; preds = %19
  %26 = load i64, ptr %4, align 8
  %27 = inttoptr i64 %26 to ptr
  %28 = getelementptr inbounds nuw i8, ptr %27, i64 24
  %29 = load i64, ptr %28, align 8
  %30 = icmp eq i64 %29, 0
  br i1 %30, label %31, label %33

31:                                               ; preds = %25
  %32 = getelementptr inbounds nuw i8, ptr %0, i64 28
  store i8 1, ptr %32, align 4
  br label %70

33:                                               ; preds = %25
  %34 = getelementptr inbounds nuw i8, ptr %27, i64 32
  %35 = load i8, ptr %34, align 8, !range !4, !noundef !5
  %36 = trunc nuw i8 %35 to i1
  %37 = getelementptr inbounds nuw i8, ptr %27, i64 16
  %38 = load ptr, ptr %37, align 8
  br i1 %36, label %40, label %39

39:                                               ; preds = %33
  tail call void @tuplesort_performsort(ptr noundef %38) #10
  store i8 1, ptr %34, align 8
  br label %41

40:                                               ; preds = %33
  tail call void @tuplesort_rescan(ptr noundef %38) #10
  br label %41

41:                                               ; preds = %40, %39
  %42 = load i64, ptr %28, align 8
  %43 = sitofp i64 %42 to double
  %44 = fmul double %12, %43
  %45 = tail call double @llvm.ceil.f64(double %44)
  %46 = fptosi double %45 to i64
  %47 = icmp sgt i64 %46, 1
  br i1 %47, label %48, label %56

48:                                               ; preds = %41
  %49 = getelementptr inbounds nuw i8, ptr %27, i64 16
  %50 = load ptr, ptr %49, align 8
  %51 = add nsw i64 %46, -1
  %52 = tail call zeroext i1 @tuplesort_skiptuples(ptr noundef %50, i64 noundef %51, i1 noundef zeroext true) #10
  br i1 %52, label %56, label %53

53:                                               ; preds = %48
  %54 = tail call zeroext i1 @errstart_cold(i32 noundef 21, ptr noundef null) #11
  tail call void @llvm.assume(i1 %54)
  %55 = tail call i32 (ptr, ...) @errmsg_internal(ptr noundef nonnull @.str.2) #10
  tail call void @errfinish(ptr noundef nonnull @.str.1, i32 noundef 480, ptr noundef nonnull @__func__.percentile_disc_final) #10
  unreachable

56:                                               ; preds = %48, %41
  %57 = getelementptr inbounds nuw i8, ptr %27, i64 16
  %58 = load ptr, ptr %57, align 8
  %59 = call zeroext i1 @tuplesort_getdatum(ptr noundef %58, i1 noundef zeroext true, i1 noundef zeroext true, ptr noundef nonnull %2, ptr noundef nonnull %3, ptr noundef null) #10
  br i1 %59, label %63, label %60

60:                                               ; preds = %56
  %61 = call zeroext i1 @errstart_cold(i32 noundef 21, ptr noundef null) #11
  call void @llvm.assume(i1 %61)
  %62 = call i32 (ptr, ...) @errmsg_internal(ptr noundef nonnull @.str.2) #10
  call void @errfinish(ptr noundef nonnull @.str.1, i32 noundef 485, ptr noundef nonnull @__func__.percentile_disc_final) #10
  unreachable

63:                                               ; preds = %56
  %64 = load i8, ptr %3, align 1, !range !4, !noundef !5
  %65 = trunc nuw i8 %64 to i1
  br i1 %65, label %66, label %68

66:                                               ; preds = %63
  %67 = getelementptr inbounds nuw i8, ptr %0, i64 28
  store i8 1, ptr %67, align 4
  br label %70

68:                                               ; preds = %63
  %69 = load i64, ptr %2, align 8
  br label %70

70:                                               ; preds = %68, %66, %31, %23, %8
  %.0 = phi i64 [ 0, %8 ], [ 0, %23 ], [ 0, %31 ], [ 0, %66 ], [ %69, %68 ]
  call void @llvm.lifetime.end.p0(i64 1, ptr nonnull %3) #10
  call void @llvm.lifetime.end.p0(i64 8, ptr nonnull %2) #10
  ret i64 %.0
}